target datalayout = "e-m:e-p270:32:32-p271:32:32-p272:64:64-i64:64-i128:128-f80:128-n8:16:32:64-S128"
target triple = "x86_64-pc-linux-gnu"

%struct.PJ_LP = type { double, double }
%struct.PJ_XY = type { double, double }

; Function Attrs: mustprogress nounwind uwtable
define internal { double, double } @_ZL15putp2_s_forward5PJ_LPP8PJconsts(double %0, double %1, ptr noundef %2) #1 {
  %4 = alloca %struct.PJ_XY, align 8
  %5 = alloca %struct.PJ_LP, align 8
  %6 = alloca ptr, align 8
  %7 = alloca i32, align 4
  %8 = alloca double, align 8
  %9 = alloca double, align 8
  %10 = alloca double, align 8
  %11 = alloca double, align 8
  %12 = alloca double, align 8
  %13 = alloca i32, align 4
  %14 = getelementptr inbounds nuw { double, double }, ptr %5, i32 0, i32 0
  store double %0, ptr %14, align 8
  %15 = getelementptr inbounds nuw { double, double }, ptr %5, i32 0, i32 1
  store double %1, ptr %15, align 8
  store ptr %2, ptr %6, align 8, !tbaa !3
  call void @llvm.memset.p0.i64(ptr align 8 %4, i8 0, i64 16, i1 false)
  call void @llvm.lifetime.start.p0(i64 4, ptr %7) #7
  call void @llvm.lifetime.start.p0(i64 8, ptr %8) #7
  %16 = getelementptr inbounds nuw %struct.PJ_LP, ptr %5, i32 0, i32 1
  %17 = load double, ptr %16, align 8, !tbaa !47
  %18 = call double @sin(double noundef %17) #7, !tbaa !49
  %19 = fmul double 0x3FE3A766FC2EC076, %18
  store double %19, ptr %8, align 8, !tbaa !50
  call void @llvm.lifetime.start.p0(i64 8, ptr %9) #7
  %20 = getelementptr inbounds nuw %struct.PJ_LP, ptr %5, i32 0, i32 1
  %21 = load double, ptr %20, align 8, !tbaa !47
  %22 = getelementptr inbounds nuw %struct.PJ_LP, ptr %5, i32 0, i32 1
  %23 = load double, ptr %22, align 8, !tbaa !47
  %24 = fmul double %21, %23
  store double %24, ptr %9, align 8, !tbaa !50
  %25 = load double, ptr %9, align 8, !tbaa !50
  %26 = load double, ptr %9, align 8, !tbaa !50
  %27 = call double @llvm.fmuladd.f64(double %26, double 4.629200e-03, double 0x3F82A2C63E125F53)
  %28 = call double @llvm.fmuladd.f64(double %25, double %27, double 6.157090e-01)
  %29 = getelementptr inbounds nuw %struct.PJ_LP, ptr %5, i32 0, i32 1
  %30 = load double, ptr %29, align 8, !tbaa !47
  %31 = fmul double %30, %28
  store double %31, ptr %29, align 8, !tbaa !47
  store i32 10, ptr %7, align 4, !tbaa !49
  br label %32

32:                                               ; preds = %71, %3
  %33 = load i32, ptr %7, align 4, !tbaa !49
  %34 = icmp ne i32 %33, 0
  br i1 %34, label %35, label %74

35:                                               ; preds = %32
  call void @llvm.lifetime.start.p0(i64 8, ptr %10) #7
  %36 = getelementptr inbounds nuw %struct.PJ_LP, ptr %5, i32 0, i32 1
  %37 = load double, ptr %36, align 8, !tbaa !47
  %38 = call double @cos(double noundef %37) #7, !tbaa !49
  store double %38, ptr %10, align 8, !tbaa !50
  call void @llvm.lifetime.start.p0(i64 8, ptr %11) #7
  %39 = getelementptr inbounds nuw %struct.PJ_LP, ptr %5, i32 0, i32 1
  %40 = load double, ptr %39, align 8, !tbaa !47
  %41 = call double @sin(double noundef %40) #7, !tbaa !49
  store double %41, ptr %11, align 8, !tbaa !50
  call void @llvm.lifetime.start.p0(i64 8, ptr %12) #7
  %42 = getelementptr inbounds nuw %struct.PJ_LP, ptr %5, i32 0, i32 1
  %43 = load double, ptr %42, align 8, !tbaa !47
  %44 = load double, ptr %11, align 8, !tbaa !50
  %45 = load double, ptr %10, align 8, !tbaa !50
  %46 = fsub double %45, 1.000000e+00
  %47 = call double @llvm.fmuladd.f64(double %44, double %46, double %43)
  %48 = load double, ptr %8, align 8, !tbaa !50
  %49 = fsub double %47, %48
  %50 = load double, ptr %10, align 8, !tbaa !50
  %51 = load double, ptr %10, align 8, !tbaa !50
  %52 = fsub double %51, 1.000000e+00
  %53 = call double @llvm.fmuladd.f64(double %50, double %52, double 1.000000e+00)
  %54 = load double, ptr %11, align 8, !tbaa !50
  %55 = load double, ptr %11, align 8, !tbaa !50
  %56 = fneg double %54
  %57 = call double @llvm.fmuladd.f64(double %56, double %55, double %53)
  %58 = fdiv double %49, %57
  store double %58, ptr %12, align 8, !tbaa !50
  %59 = load double, ptr %12, align 8, !tbaa !50
  %60 = getelementptr inbounds nuw %struct.PJ_LP, ptr %5, i32 0, i32 1
  %61 = load double, ptr %60, align 8, !tbaa !47
  %62 = fsub double %61, %59
  store double %62, ptr %60, align 8, !tbaa !47
  %63 = load double, ptr %12, align 8, !tbaa !50
  %64 = call double @llvm.fabs.f64(double %63)
  %65 = fcmp olt double %64, 1.000000e-10
  br i1 %65, label %66, label %67

66:                                               ; preds = %35
  store i32 2, ptr %13, align 4
  br label %68

67:                                               ; preds = %35
  store i32 0, ptr %13, align 4
  br label %68

68:                                               ; preds = %67, %66
  call void @llvm.lifetime.end.p0(i64 8, ptr %12) #7
  call void @llvm.lifetime.end.p0(i64 8, ptr %11) #7
  call void @llvm.lifetime.end.p0(i64 8, ptr %10) #7
  %69 = load i32, ptr %13, align 4
  switch i32 %69, label %99 [
    i32 0, label %70
    i32 2, label %74
  ]

70:                                               ; preds = %68
  br label %71

71:                                               ; preds = %70
  %72 = load i32, ptr %7, align 4, !tbaa !49
  %73 = add nsw i32 %72, -1
  store i32 %73, ptr %7, align 4, !tbaa !49
  br label %32, !llvm.loop !53

74:                                               ; preds = %68, %32
  %75 = load i32, ptr %7, align 4, !tbaa !49
  %76 = icmp ne i32 %75, 0
  br i1 %76, label %83, label %77

77:                                               ; preds = %74
  %78 = getelementptr inbounds nuw %struct.PJ_LP, ptr %5, i32 0, i32 1
  %79 = load double, ptr %78, align 8, !tbaa !47
  %80 = fcmp olt double %79, 0.000000e+00
  %81 = select i1 %80, double 0xBFF0C152382D7365, double 0x3FF0C152382D7365
  %82 = getelementptr inbounds nuw %struct.PJ_LP, ptr %5, i32 0, i32 1
  store double %81, ptr %82, align 8, !tbaa !47
  br label %83

83:                                               ; preds = %77, %74
  %84 = getelementptr inbounds nuw %struct.PJ_LP, ptr %5, i32 0, i32 0
  %85 = load double, ptr %84, align 8, !tbaa !52
  %86 = fmul double 1.894900e+00, %85
  %87 = getelementptr inbounds nuw %struct.PJ_LP, ptr %5, i32 0, i32 1
  %88 = load double, ptr %87, align 8, !tbaa !47
  %89 = call double @cos(double noundef %88) #7, !tbaa !49
  %90 = fsub double %89, 5.000000e-01
  %91 = fmul double %86, %90
  %92 = getelementptr inbounds nuw %struct.PJ_XY, ptr %4, i32 0, i32 0
  store double %91, ptr %92, align 8, !tbaa !51
  %93 = getelementptr inbounds nuw %struct.PJ_LP, ptr %5, i32 0, i32 1
  %94 = load double, ptr %93, align 8, !tbaa !47
  %95 = call double @sin(double noundef %94) #7, !tbaa !49
  %96 = fmul double 1.718480e+00, %95
  %97 = getelementptr inbounds nuw %struct.PJ_XY, ptr %4, i32 0, i32 1
  store double %96, ptr %97, align 8, !tbaa !45
  store i32 1, ptr %13, align 4
  call void @llvm.lifetime.end.p0(i64 8, ptr %9) #7
  call void @llvm.lifetime.end.p0(i64 8, ptr %8) #7
  call void @llvm.lifetime.end.p0(i64 4, ptr %7) #7
  %98 = load { double, double }, ptr %4, align 8
  ret { double, double } %98

99:                                               ; preds = %68
  unreachable
}