; Function Attrs: mustprogress nofree nounwind memory(write) uwtable
define internal { double, double } @_ZL15putp2_s_forward5PJ_LPP8PJconsts(double %0, double %1, ptr readnone captures(none) %2) #3 {
  %4 = tail call double @sin(double noundef %1) #6, !tbaa !44
  %5 = fmul double %4, 0x3FE3A766FC2EC076
  %6 = fmul double %1, %1
  %7 = tail call double @llvm.fmuladd.f64(double %6, double 4.629200e-03, double 0x3F82A2C63E125F53)
  %8 = tail call double @llvm.fmuladd.f64(double %6, double %7, double 6.157090e-01)
  %9 = fmul double %1, %8
  br label %10

10:                                               ; preds = %10, %3
  %.sroa.2.027 = phi double [ %9, %3 ], [ %20, %10 ]
  %.02526 = phi i32 [ 10, %3 ], [ %23, %10 ]
  %11 = tail call double @cos(double noundef %.sroa.2.027) #6, !tbaa !44
  %12 = tail call double @sin(double noundef %.sroa.2.027) #6, !tbaa !44
  %13 = fadd double %11, -1.000000e+00
  %14 = tail call double @llvm.fmuladd.f64(double %12, double %13, double %.sroa.2.027)
  %15 = fsub double %14, %5
  %16 = tail call double @llvm.fmuladd.f64(double %11, double %13, double 1.000000e+00)
  %17 = fneg double %12
  %18 = tail call double @llvm.fmuladd.f64(double %17, double %12, double %16)
  %19 = fdiv double %15, %18
  %20 = fsub double %.sroa.2.027, %19
  %21 = tail call double @llvm.fabs.f64(double %19)
  %22 = fcmp olt double %21, 1.000000e-10
  %23 = add nsw i32 %.02526, -1
  %.not = icmp eq i32 %23, 0
  %or.cond = select i1 %22, i1 true, i1 %.not
  br i1 %or.cond, label %24, label %10, !llvm.loop !45

24:                                               ; preds = %10
  %25 = fcmp olt double %20, 0.000000e+00
  %26 = select i1 %25, double 0xBFF0C152382D7365, double 0x3FF0C152382D7365
  %.sroa.2.2 = select i1 %22, double %20, double %26
  %27 = fmul double %0, 1.894900e+00
  %28 = tail call double @cos(double noundef %.sroa.2.2) #6, !tbaa !44
  %29 = fadd double %28, -5.000000e-01
  %30 = fmul double %27, %29
  %31 = tail call double @sin(double noundef %.sroa.2.2) #6, !tbaa !44
  %32 = fmul double %31, 1.718480e+00
  %.fca.0.insert = insertvalue { double, double } poison, double %30, 0
  %.fca.1.insert = insertvalue { double, double } %.fca.0.insert, double %32, 1
  ret { double, double } %.fca.1.insert
}